; Function Attrs: mustprogress uwtable
define void @_ZN6casadi2MX3infExx(ptr dead_on_unwind noalias writable sret(%"class.casadi::MX") align 8 %0, i64 noundef %1, i64 noundef %2) local_unnamed_addr #3 align 2 personality ptr @__gxx_personality_v0 {
  %4 = alloca %"class.casadi::Sparsity", align 8
  call void @_ZN6casadi8Sparsity5denseExx(ptr dead_on_unwind nonnull writable sret(%"class.casadi::Sparsity") align 8 %4, i64 noundef %1, i64 noundef %2)
  %5 = invoke noundef ptr @_ZN6casadi10ConstantMX6createERKNS_8SparsityEd(ptr noundef nonnull align 8 dereferenceable(8) %4, double noundef 0x7FF0000000000000)
          to label %.noexc unwind label %6

.noexc:                                           ; preds = %3
  invoke void @_ZN6casadi2MXC1EPNS_6MXNodeEbbbb(ptr noundef nonnull align 8 dereferenceable(8) %0, ptr noundef %5, i1 noundef zeroext false, i1 noundef zeroext false, i1 noundef zeroext false, i1 noundef zeroext false)
          to label %_ZN6casadi2MX3infERKNS_8SparsityE.exit unwind label %6

_ZN6casadi2MX3infERKNS_8SparsityE.exit:           ; preds = %.noexc
  call void @_ZN6casadi12SharedObjectD2Ev(ptr noundef nonnull align 8 dereferenceable(8) %4) #27
  ret void

6:                                                ; preds = %.noexc, %3
  %7 = landingpad { ptr, i32 }
          cleanup
  call void @_ZN6casadi12SharedObjectD2Ev(ptr noundef nonnull align 8 dereferenceable(8) %4) #27
  resume { ptr, i32 } %7
}